; Function Attrs: mustprogress nofree norecurse nosync nounwind willreturn memory(readwrite, inaccessiblemem: none) uwtable
define hidden noundef nonnull align 8 dereferenceable(8) ptr @_ZN4cvc58internal7IntStatpLEl(ptr noundef nonnull readonly returned align 8 dereferenceable(8) %this, i64 noundef %val) local_unnamed_addr #0 align 2 {
entry:
  %0 = load ptr, ptr %this, align 8
  %d_value = getelementptr inbounds nuw i8, ptr %0, i64 16
  %1 = load i64, ptr %d_value, align 8
  %add = add nsw i64 %1, %val
  store i64 %add, ptr %d_value, align 8
  ret ptr %this
}